; Function Attrs: nounwind uwtable
define void @evtag_marshal(ptr noundef %0, i32 noundef %1, ptr noundef %2, i32 noundef %3) local_unnamed_addr #1 {
  %5 = alloca [5 x i8], align 1
  %6 = alloca [5 x i8], align 1
  call void @llvm.lifetime.start.p0(i64 5, ptr nonnull %6) #7
  call void @llvm.memset.p0.i64(ptr noundef nonnull align 1 dereferenceable(5) %6, i8 0, i64 5, i1 false)
  br label %7

7:                                                ; preds = %7, %4
  %indvars.iv.i = phi i64 [ %indvars.iv.next.i, %7 ], [ 0, %4 ]
  %.011.i = phi i32 [ %10, %7 ], [ %1, %4 ]
  %8 = trunc i32 %.011.i to i8
  %9 = and i8 %8, 127
  %10 = lshr i32 %.011.i, 7
  %.not.i = icmp ult i32 %.011.i, 128
  %masksel.i = select i1 %.not.i, i8 0, i8 -128
  %.0.i = or disjoint i8 %9, %masksel.i
  %indvars.iv.next.i = add nuw nsw i64 %indvars.iv.i, 1
  %11 = getelementptr inbounds nuw [5 x i8], ptr %6, i64 0, i64 %indvars.iv.i
  store i8 %.0.i, ptr %11, align 1
  br i1 %.not.i, label %12, label %7, !llvm.loop !6

12:                                               ; preds = %7
  %.not14.i = icmp eq ptr %0, null
  br i1 %.not14.i, label %evtag_encode_tag.exit, label %13

13:                                               ; preds = %12
  %14 = and i64 %indvars.iv.next.i, 4294967295
  %15 = call i32 @evbuffer_add(ptr noundef nonnull %0, ptr noundef nonnull %6, i64 noundef %14) #7
  br label %evtag_encode_tag.exit

evtag_encode_tag.exit:                            ; preds = %12, %13
  call void @llvm.lifetime.end.p0(i64 5, ptr nonnull %6) #7
  call void @llvm.lifetime.start.p0(i64 5, ptr nonnull %5) #7
  call void @llvm.memset.p0.i64(ptr noundef nonnull align 1 dereferenceable(5) %5, i8 0, i64 5, i1 false)
  %.not23.i.i = icmp eq i32 %3, 0
  br i1 %.not23.i.i, label %evtag_encode_int.exit, label %.lr.ph.i.i

.lr.ph.i.i:                                       ; preds = %evtag_encode_tag.exit, %29
  %.02025.i.i = phi i32 [ %31, %29 ], [ 1, %evtag_encode_tag.exit ]
  %.02124.i.i = phi i32 [ %30, %29 ], [ %3, %evtag_encode_tag.exit ]
  %16 = and i32 %.02025.i.i, 1
  %.not22.i.i = icmp eq i32 %16, 0
  %17 = lshr i32 %.02025.i.i, 1
  %18 = zext nneg i32 %17 to i64
  %19 = getelementptr inbounds nuw i8, ptr %5, i64 %18
  %20 = load i8, ptr %19, align 1
  %.021.tr.i.i = trunc i32 %.02124.i.i to i8
  br i1 %.not22.i.i, label %25, label %21

21:                                               ; preds = %.lr.ph.i.i
  %22 = and i8 %20, -16
  %23 = and i8 %.021.tr.i.i, 15
  %24 = or disjoint i8 %22, %23
  br label %29

25:                                               ; preds = %.lr.ph.i.i
  %26 = and i8 %20, 15
  %27 = shl i8 %.021.tr.i.i, 4
  %28 = or disjoint i8 %26, %27
  br label %29

29:                                               ; preds = %25, %21
  %.sink.i.i = phi i8 [ %28, %25 ], [ %24, %21 ]
  store i8 %.sink.i.i, ptr %19, align 1
  %30 = lshr i32 %.02124.i.i, 4
  %31 = add nuw nsw i32 %.02025.i.i, 1
  %.not.i.i = icmp ult i32 %.02124.i.i, 16
  br i1 %.not.i.i, label %._crit_edge.i.i, label %.lr.ph.i.i, !llvm.loop !3

._crit_edge.i.i:                                  ; preds = %29
  %.pre.i.i = load i8, ptr %5, align 1
  %32 = and i8 %.pre.i.i, 15
  %33 = icmp samesign ugt i32 %.02025.i.i, 1
  %.020.tr.i.i = trunc i32 %31 to i8
  %34 = shl i8 %.020.tr.i.i, 4
  %35 = add i8 %34, -32
  %spec.select.i.i = select i1 %33, i8 %35, i8 0
  %36 = or disjoint i8 %32, %spec.select.i.i
  %37 = add nuw i32 %.02025.i.i, 2
  %38 = lshr i32 %37, 1
  %39 = zext nneg i32 %38 to i64
  br label %evtag_encode_int.exit

evtag_encode_int.exit:                            ; preds = %evtag_encode_tag.exit, %._crit_edge.i.i
  %.020.lcssa29.i.i = phi i64 [ 1, %evtag_encode_tag.exit ], [ %39, %._crit_edge.i.i ]
  %40 = phi i8 [ 0, %evtag_encode_tag.exit ], [ %36, %._crit_edge.i.i ]
  store i8 %40, ptr %5, align 1
  %41 = call i32 @evbuffer_add(ptr noundef %0, ptr noundef nonnull %5, i64 noundef %.020.lcssa29.i.i) #7
  call void @llvm.lifetime.end.p0(i64 5, ptr nonnull %5) #7
  %42 = zext i32 %3 to i64
  %43 = call i32 @evbuffer_add(ptr noundef %0, ptr noundef %2, i64 noundef %42) #7
  ret void
}